target datalayout = "e-m:e-p270:32:32-p271:32:32-p272:64:64-i64:64-i128:128-f80:128-n8:16:32:64-S128"
target triple = "x86_64-pc-linux-gnu"

%struct._psqlSettings = type { ptr, i32, ptr, i8, ptr, ptr, %struct.printQueryOpt, ptr, ptr, ptr, i8, i8, i32, i32, ptr, ptr, i8, [4 x ptr], i8, i32, ptr, i8, i32, ptr, ptr, i64, i64, i8, ptr, ptr, ptr, i8, i8, i8, i8, i8, i8, i8, i32, i32, i32, i32, i32, i32, i32, i32, ptr, ptr, ptr, i32, i8, i32 }
%struct.printQueryOpt = type { %struct.printTableOpt, ptr, ptr, ptr, i8, ptr, i32 }
%struct.printTableOpt = type { i32, i16, i32, i32, i16, i16, i32, i8, i8, i8, i8, i64, ptr, %struct.separator, %struct.separator, [2 x i8], i8, ptr, i32, i32, i32, i32, i32, i32 }
%struct.separator = type { ptr, i8 }

@pset = external global %struct._psqlSettings, align 8
@.str.157 = private unnamed_addr constant [31 x i8] c"\\%s: missing required argument\00", align 1

; Function Attrs: nounwind uwtable
define internal void @ignore_slash_options(ptr noundef %0) #0 {
  %2 = alloca ptr, align 8
  %3 = alloca ptr, align 8
  store ptr %0, ptr %2, align 8
  call void @llvm.lifetime.start.p0(i64 8, ptr %3) #10
  br label %4

4:                                                ; preds = %8, %1
  %5 = load ptr, ptr %2, align 8
  %6 = call ptr @psql_scan_slash_option(ptr noundef %5, i32 noundef 0, ptr noundef null, i1 noundef zeroext false)
  store ptr %6, ptr %3, align 8
  %7 = icmp ne ptr %6, null
  br i1 %7, label %8, label %10

8:                                                ; preds = %4
  %9 = load ptr, ptr %3, align 8
  call void @free(ptr noundef %9) #10
  br label %4, !llvm.loop !18

10:                                               ; preds = %4
  call void @llvm.lifetime.end.p0(i64 8, ptr %3) #10
  ret void
}

; Function Attrs: nounwind uwtable
define internal i32 @exec_command_getenv(ptr noundef %0, i1 noundef zeroext %1, ptr noundef %2) #0 {
  %4 = alloca ptr, align 8
  %5 = alloca i8, align 1
  %6 = alloca ptr, align 8
  %7 = alloca i8, align 1
  %8 = alloca ptr, align 8
  %9 = alloca ptr, align 8
  %10 = alloca ptr, align 8
  store ptr %0, ptr %4, align 8
  %11 = zext i1 %1 to i8
  store i8 %11, ptr %5, align 1
  store ptr %2, ptr %6, align 8
  call void @llvm.lifetime.start.p0(i64 1, ptr %7) #10
  store i8 1, ptr %7, align 1
  %12 = load i8, ptr %5, align 1, !range !4, !noundef !5
  %13 = trunc i8 %12 to i1
  br i1 %13, label %14, label %41

14:                                               ; preds = %3
  call void @llvm.lifetime.start.p0(i64 8, ptr %8) #10
  %15 = load ptr, ptr %4, align 8
  %16 = call ptr @psql_scan_slash_option(ptr noundef %15, i32 noundef 0, ptr noundef null, i1 noundef zeroext false)
  store ptr %16, ptr %8, align 8
  call void @llvm.lifetime.start.p0(i64 8, ptr %9) #10
  %17 = load ptr, ptr %4, align 8
  %18 = call ptr @psql_scan_slash_option(ptr noundef %17, i32 noundef 0, ptr noundef null, i1 noundef zeroext false)
  store ptr %18, ptr %9, align 8
  %19 = load ptr, ptr %8, align 8
  %20 = icmp ne ptr %19, null
  br i1 %20, label %21, label %24

21:                                               ; preds = %14
  %22 = load ptr, ptr %9, align 8
  %23 = icmp ne ptr %22, null
  br i1 %23, label %26, label %24

24:                                               ; preds = %21, %14
  %25 = load ptr, ptr %6, align 8
  call void (i32, i32, ptr, ...) @pg_log_generic(i32 noundef 4, i32 noundef 0, ptr noundef @.str.157, ptr noundef %25)
  store i8 0, ptr %7, align 1
  br label %38

26:                                               ; preds = %21
  call void @llvm.lifetime.start.p0(i64 8, ptr %10) #10
  %27 = load ptr, ptr %9, align 8
  %28 = call ptr @getenv(ptr noundef %27) #10
  store ptr %28, ptr %10, align 8
  %29 = load ptr, ptr %10, align 8
  %30 = icmp ne ptr %29, null
  br i1 %30, label %31, label %37

31:                                               ; preds = %26
  %32 = load ptr, ptr getelementptr inbounds nuw (%struct._psqlSettings, ptr @pset, i32 0, i32 29), align 8
  %33 = load ptr, ptr %8, align 8
  %34 = load ptr, ptr %10, align 8
  %35 = call zeroext i1 @SetVariable(ptr noundef %32, ptr noundef %33, ptr noundef %34)
  br i1 %35, label %37, label %36

36:                                               ; preds = %31
  store i8 0, ptr %7, align 1
  br label %37

37:                                               ; preds = %36, %31, %26
  call void @llvm.lifetime.end.p0(i64 8, ptr %10) #10
  br label %38

38:                                               ; preds = %37, %24
  %39 = load ptr, ptr %8, align 8
  call void @free(ptr noundef %39) #10
  %40 = load ptr, ptr %9, align 8
  call void @free(ptr noundef %40) #10
  call void @llvm.lifetime.end.p0(i64 8, ptr %9) #10
  call void @llvm.lifetime.end.p0(i64 8, ptr %8) #10
  br label %43

41:                                               ; preds = %3
  %42 = load ptr, ptr %4, align 8
  call void @ignore_slash_options(ptr noundef %42)
  br label %43

43:                                               ; preds = %41, %38
  %44 = load i8, ptr %7, align 1, !range !4, !noundef !5
  %45 = trunc i8 %44 to i1
  %46 = select i1 %45, i32 2, i32 5
  call void @llvm.lifetime.end.p0(i64 1, ptr %7) #10
  ret i32 %46
}