; Function Attrs: nounwind uwtable
define internal fastcc range(i32 2, 6) i32 @exec_command_getenv(ptr noundef %0, i1 noundef zeroext %1, ptr noundef %2) unnamed_addr #0 {
  %4 = tail call ptr @psql_scan_slash_option(ptr noundef %0, i32 noundef 0, ptr noundef null, i1 noundef zeroext false) #16
  br i1 %1, label %5, label %16

5:                                                ; preds = %3
  %6 = tail call ptr @psql_scan_slash_option(ptr noundef %0, i32 noundef 0, ptr noundef null, i1 noundef zeroext false) #16
  %7 = icmp ne ptr %4, null
  %8 = icmp ne ptr %6, null
  %or.cond = select i1 %7, i1 %8, i1 false
  br i1 %or.cond, label %10, label %9

9:                                                ; preds = %5
  tail call void (i32, i32, ptr, ...) @pg_log_generic(i32 noundef 4, i32 noundef 0, ptr noundef nonnull @.str.157, ptr noundef %2) #16
  br label %15

10:                                               ; preds = %5
  %11 = tail call ptr @getenv(ptr noundef nonnull %6) #16
  %.not = icmp eq ptr %11, null
  br i1 %.not, label %15, label %12

12:                                               ; preds = %10
  %13 = load ptr, ptr getelementptr inbounds nuw (i8, ptr @pset, i64 384), align 8
  %14 = tail call zeroext i1 @SetVariable(ptr noundef %13, ptr noundef nonnull %4, ptr noundef nonnull %11) #16
  %spec.select = select i1 %14, i32 2, i32 5
  br label %15

15:                                               ; preds = %12, %10, %9
  %.0 = phi i32 [ 5, %9 ], [ 2, %10 ], [ %spec.select, %12 ]
  tail call void @free(ptr noundef %4) #16
  tail call void @free(ptr noundef %6) #16
  br label %ignore_slash_options.exit

16:                                               ; preds = %3
  %.not2.i = icmp eq ptr %4, null
  br i1 %.not2.i, label %ignore_slash_options.exit, label %.lr.ph.i

.lr.ph.i:                                         ; preds = %16, %.lr.ph.i
  %17 = phi ptr [ %18, %.lr.ph.i ], [ %4, %16 ]
  tail call void @free(ptr noundef nonnull %17) #16
  %18 = tail call ptr @psql_scan_slash_option(ptr noundef %0, i32 noundef 0, ptr noundef null, i1 noundef zeroext false) #16
  %.not.i = icmp eq ptr %18, null
  br i1 %.not.i, label %ignore_slash_options.exit, label %.lr.ph.i, !llvm.loop !10

ignore_slash_options.exit:                        ; preds = %.lr.ph.i, %16, %15
  %.2 = phi i32 [ %.0, %15 ], [ 2, %16 ], [ 2, %.lr.ph.i ]
  ret i32 %.2
}